(dp0
S'0062622+0065207'
p1
I00
sS'0108394+0449059'
p2
I00
sS'0107290+0936501'
p3
I00
sS'0107290+0358273'
p4
I01
sS'0071230+0119217'
p5
I00
sS'0103064+0109830'
p6
I00
sS'0103064+0109445'
p7
I01
sS'0055928+0098554'
p8
I01
sS'0109830+0125439'
p9
I00
sS'0060196+0108394'
p10
I01
sS'0071230+0087469'
p11
I00
sS'0059578+0211915'
p12
I01
sS'0082971+0093748'
p13
I01
sS'0057012+0080339'
p14
I01
sS'0066999+0250494'
p15
I00
sS'0082971+0102926'
p16
I00
sS'0097576+0936501'
p17
I00
sS'0109445+0117951'
p18
I01
sS'0120815+0250494'
p19
I01
sS'0195685+0449059'
p20
I01
sS'0060196+0068646'
p21
I01
sS'0058150+0091042'
p22
I01
sS'0071230+0111161'
p23
I01
sS'0065207+0264464'
p24
I00
sS'0053935+0102926'
p25
I00
sS'0059578+0070511'
p26
I00
sS'0082971+0109444'
p27
I00
sS'0064116+0066999'
p28
I00
sS'0031381+0070917'
p29
I01
sS'0062622+0117509'
p30
I00
sS'0060196+0109445'
p31
I00
sS'0093748+0936501'
p32
I01
sS'0208092+0211915'
p33
I01
sS'0059578+0119217'
p34
I00
sS'0071360+0108052'
p35
I00
sS'0103064+0110912'
p36
I01
sS'0108052+0119217'
p37
I01
sS'0178868+0333766'
p38
I00
sS'0178868+0264464'
p39
I01
sS'0064116+0087469'
p40
I01
sS'0056172+0088763'
p41
I00
sS'0068646+0082971'
p42
I00
sS'0091042+0102926'
p43
I01
sS'0098554+0401445'
p44
I01
sS'0108394+0110912'
p45
I00
sS'0071230+0073195'
p46
I01
sS'0064782+0117509'
p47
I01
sS'0073195+0425123'
p48
I00
sS'0107290+0401445'
p49
I00
sS'0056172+0057076'
p50
I00
sS'0060196+0071360'
p51
I00
sS'0097576+0102926'
p52
I01
sS'0093058+0936501'
p53
I00
sS'0031381+0055928'
p54
I01
sS'0097576+0178868'
p55
I00
sS'0119217+0936501'
p56
I01
sS'0055928+0118715'
p57
I01
sS'0053935+0090605'
p58
I01
sS'0088763+0109830'
p59
I00
sS'0098554+0245429'
p60
I00
sS'0208092+0333766'
p61
I01
sS'0058461+0102926'
p62
I01
sS'0058461+0067588'
p63
I00
sS'0070917+0109445'
p64
I00
sS'0103064+0180093'
p65
I01
sS'0106977+0457430'
p66
I01
sS'0103064+0250494'
p67
I01
sS'0133093+0333766'
p68
I01
sS'0065207+0407887'
p69
I00
sS'0195685+0457430'
p70
I00
sS'0031381+0060196'
p71
I01
sS'0070511+0936501'
p72
I00
sS'0057076+0118715'
p73
I01
sS'0112384+0264464'
p74
I01
sS'0245429+0253474'
p75
I01
sS'0401445+0936501'
p76
I01
sS'0064782+0108052'
p77
I00
sS'0103064+0457430'
p78
I00
sS'0057076+0087469'
p79
I01
sS'0111161+0211915'
p80
I00
sS'0086250+0264464'
p81
I00
sS'0071230+0102926'
p82
I01
sS'0065207+0358273'
p83
I01
sS'0070511+0088763'
p84
I01
sS'0057076+0407887'
p85
I00
sS'0073195+0109444'
p86
I00
sS'0058150+0245429'
p87
I01
sS'0081505+0109830'
p88
I01
sS'0178868+0211915'
p89
I01
sS'0119217+0358273'
p90
I01
sS'0117509+0245429'
p91
I00
sS'0062622+0109445'
p92
I01
sS'0093058+0425123'
p93
I00
sS'0053935+0110912'
p94
I01
sS'0057115+0058461'
p95
I01
sS'0053935+0111161'
p96
I00
sS'0107290+0178868'
p97
I00
sS'0059578+0117951'
p98
I01
sS'0057012+0071230'
p99
I00
sS'0106977+0118715'
p100
I01
sS'0097576+0111161'
p101
I00
sS'0064116+0333766'
p102
I00
sS'0097576+0264464'
p103
I00
sS'0068646+0208092'
p104
I00
sS'0109830+0118715'
p105
I00
sS'0250494+0333766'
p106
I00
sS'0060196+0067588'
p107
I00
sS'0125439+0208092'
p108
I00
sS'0098554+0102926'
p109
I01
sS'0068646+0195685'
p110
I00
sS'0080339+0090605'
p111
I00
sS'0093058+0093748'
p112
I00
sS'0060196+0064782'
p113
I01
sS'0055928+0250494'
p114
I01
sS'0119217+0211915'
p115
I00
sS'0082971+0245429'
p116
I01
sS'0117509+0208092'
p117
I01
sS'0111161+0457430'
p118
I01
sS'0065207+0108052'
p119
I00
sS'0064782+0457430'
p120
I01
sS'0071230+0088847'
p121
I01
sS'0087469+0333766'
p122
I01
sS'0098554+0109445'
p123
I01
sS'0064116+0180093'
p124
I01
sS'0083658+0097576'
p125
I01
sS'0070511+0083658'
p126
I00
sS'0065207+0106977'
p127
I00
sS'0057076+0073195'
p128
I01
sS'0070917+0117509'
p129
I00
sS'0070511+0253474'
p130
I01
sS'0090605+0117509'
p131
I01
sS'0065207+0111161'
p132
I00
sS'0088847+0112384'
p133
I01
sS'0057115+0067588'
p134
I00
sS'0088763+0333766'
p135
I01
sS'0253474+0333766'
p136
I01
sS'0057076+0425123'
p137
I00
sS'0087469+0098554'
p138
I01
sS'0055928+0058461'
p139
I01
sS'0071360+0093058'
p140
I00
sS'0082971+0112384'
p141
I01
sS'0081505+0425123'
p142
I00
sS'0091042+0093748'
p143
I00
sS'0064116+0110912'
p144
I01
sS'0062622+0071230'
p145
I00
sS'0118715+0253474'
p146
I00
sS'0082971+0087469'
p147
I01
sS'0070917+0407887'
p148
I01
sS'0053125+0250494'
p149
I00
sS'0109444+0449059'
p150
I01
sS'0106977+0245429'
p151
I01
sS'0068646+0936501'
p152
I00
sS'0083658+0109445'
p153
I01
sS'0073195+0245429'
p154
I00
sS'0110912+0250494'
p155
I00
sS'0088763+0106977'
p156
I00
s.